; Function Attrs: nounwind uwtable
define internal ptr @getConfigReplicaOfOption(ptr nocapture readnone %config) #2 {
entry:
  %buf = alloca [256 x i8], align 16
  %0 = load ptr, ptr getelementptr inbounds (%struct.redisServer, ptr @server, i64 0, i32 283), align 8
  %tobool.not = icmp eq ptr %0, null
  br i1 %tobool.not, label %if.else, label %if.then

if.then:                                          ; preds = %entry
  %1 = load i32, ptr getelementptr inbounds (%struct.redisServer, ptr @server, i64 0, i32 284), align 8
  %call = call i32 (ptr, i64, ptr, ...) @snprintf(ptr noundef nonnull dereferenceable(1) %buf, i64 noundef 256, ptr noundef nonnull @.str.414, ptr noundef nonnull %0, i32 noundef %1) #24
  br label %if.end

if.else:                                          ; preds = %entry
  store i8 0, ptr %buf, align 16
  br label %if.end

if.end:                                           ; preds = %if.else, %if.then
  %call2 = call ptr @sdsnew(ptr noundef nonnull %buf) #24
  ret ptr %call2
}